; Function Attrs: mustprogress nounwind uwtable
define hidden void @_ZN15G1JFRTracerMarkD2Ev(ptr nocapture noundef nonnull readonly align 8 dereferenceable(16) %0) unnamed_addr #0 align 2 {
  %2 = alloca %class.TimeInstant, align 8
  %3 = alloca %class.TimeInstant, align 16
  %4 = load ptr, ptr @_ZN8Universe14_collectedHeapE, align 8
  %5 = getelementptr inbounds i8, ptr %0, i64 8
  %6 = load ptr, ptr %5, align 8
  tail call void @_ZN13CollectedHeap19trace_heap_after_gcEPK8GCTracer(ptr noundef nonnull align 8 dereferenceable(104) %4, ptr noundef %6) #23
  %7 = load ptr, ptr %0, align 8
  %8 = tail call { i64, i64 } @_ZN29CompositeElapsedCounterSource3nowEv() #23
  %9 = extractvalue { i64, i64 } %8, 0
  store i64 %9, ptr %2, align 8
  %10 = getelementptr inbounds i8, ptr %2, i64 8
  %11 = extractvalue { i64, i64 } %8, 1
  store i64 %11, ptr %10, align 8
  %12 = load ptr, ptr %7, align 8
  %13 = getelementptr inbounds i8, ptr %12, i64 8
  %14 = load ptr, ptr %13, align 8
  call void %14(ptr noundef nonnull align 8 dereferenceable(112) %7, ptr noundef nonnull align 8 dereferenceable(16) %2) #23
  %15 = load ptr, ptr %5, align 8
  %16 = load ptr, ptr %0, align 8
  %17 = getelementptr inbounds i8, ptr %16, i64 24
  %18 = load <2 x i64>, ptr %17, align 8
  store <2 x i64> %18, ptr %3, align 16
  %19 = getelementptr inbounds i8, ptr %16, i64 40
  call void @_ZN8GCTracer13report_gc_endERK11TimeInstantI30CompositeCounterRepresentation29CompositeElapsedCounterSourceEP14TimePartitions(ptr noundef nonnull align 8 dereferenceable(80) %15, ptr noundef nonnull align 8 dereferenceable(16) %3, ptr noundef nonnull %19) #23
  ret void
}